; Function Attrs: nounwind uwtable
define ptr @l_Option_toLOption___rarg(ptr noundef %0) #1 {
  %2 = ptrtoint ptr %0 to i64
  %3 = and i64 %2, 1
  %.not.i11 = icmp eq i64 %3, 0
  br i1 %.not.i11, label %7, label %4

4:                                                ; preds = %1
  %5 = lshr i64 %2, 1
  %6 = trunc i64 %5 to i32
  br label %lean_obj_tag.exit

7:                                                ; preds = %1
  %8 = getelementptr i8, ptr %0, i64 4
  %.val.i = load i32, ptr %8, align 4
  %9 = lshr i32 %.val.i, 24
  br label %lean_obj_tag.exit

lean_obj_tag.exit:                                ; preds = %4, %7
  %.0.i = phi i32 [ %6, %4 ], [ %9, %7 ]
  %10 = icmp eq i32 %.0.i, 0
  br i1 %10, label %36, label %11

11:                                               ; preds = %lean_obj_tag.exit
  %.val = load i32, ptr %0, align 4, !tbaa !4
  %12 = icmp eq i32 %.val, 1
  br i1 %12, label %36, label %13

13:                                               ; preds = %11
  %14 = getelementptr inbounds nuw i8, ptr %0, i64 8
  %15 = load ptr, ptr %14, align 8, !tbaa !10
  %16 = ptrtoint ptr %15 to i64
  %17 = and i64 %16, 1
  %.not = icmp eq i64 %17, 0
  br i1 %.not, label %18, label %lean_inc.exit

18:                                               ; preds = %13
  %.val.i12 = load i32, ptr %15, align 4, !tbaa !4
  %19 = icmp sgt i32 %.val.i12, 0
  br i1 %19, label %20, label %22, !prof !9

20:                                               ; preds = %18
  %21 = add nuw i32 %.val.i12, 1
  store i32 %21, ptr %15, align 4, !tbaa !4
  br label %lean_inc.exit

22:                                               ; preds = %18
  %.not.i13 = icmp eq i32 %.val.i12, 0
  br i1 %.not.i13, label %lean_inc.exit, label %23

23:                                               ; preds = %22
  tail call void @lean_inc_ref_cold(ptr noundef nonnull %15) #4
  br label %lean_inc.exit

lean_inc.exit:                                    ; preds = %23, %22, %20, %13
  br i1 %.not.i11, label %24, label %lean_dec.exit

24:                                               ; preds = %lean_inc.exit
  %25 = load i32, ptr %0, align 4, !tbaa !4
  %26 = icmp sgt i32 %25, 1
  br i1 %26, label %27, label %29, !prof !9

27:                                               ; preds = %24
  %28 = add nsw i32 %25, -1
  store i32 %28, ptr %0, align 4, !tbaa !4
  br label %lean_dec.exit

29:                                               ; preds = %24
  %.not.i = icmp eq i32 %25, 0
  br i1 %.not.i, label %lean_dec.exit, label %30

30:                                               ; preds = %29
  tail call void @lean_dec_ref_cold(ptr noundef nonnull %0) #4
  br label %lean_dec.exit

lean_dec.exit:                                    ; preds = %30, %29, %27, %lean_inc.exit
  tail call void @lean_inc_heartbeat() #4
  %31 = tail call noalias ptr @mi_malloc_small(i64 noundef 16) #4
  %32 = icmp eq ptr %31, null
  br i1 %32, label %33, label %lean_alloc_ctor.exit

33:                                               ; preds = %lean_dec.exit
  tail call void @lean_internal_panic_out_of_memory() #5
  unreachable

lean_alloc_ctor.exit:                             ; preds = %lean_dec.exit
  %34 = getelementptr inbounds nuw i8, ptr %31, i64 4
  store i32 1, ptr %31, align 4, !tbaa !4
  store i32 16842768, ptr %34, align 4
  %35 = getelementptr inbounds nuw i8, ptr %31, i64 8
  store ptr %15, ptr %35, align 8, !tbaa !10
  br label %36

36:                                               ; preds = %lean_obj_tag.exit, %lean_alloc_ctor.exit, %11
  %.0 = phi ptr [ %31, %lean_alloc_ctor.exit ], [ %0, %11 ], [ inttoptr (i64 1 to ptr), %lean_obj_tag.exit ]
  ret ptr %.0
}